target datalayout = "e-m:e-p270:32:32-p271:32:32-p272:64:64-i64:64-i128:128-f80:128-n8:16:32:64-S128"
target triple = "x86_64-pc-linux-gnu"

%class.colvarproxy_atoms = type <{ ptr, %"class.std::vector", %"class.std::vector.3", %"class.std::vector.8", %"class.std::vector.8", %"class.std::vector.13", %"class.std::vector.13", %"class.std::vector.13", double, double, i32, i8, i8, i8, i8 }>
%"class.std::vector" = type { %"struct.std::_Vector_base" }
%"struct.std::_Vector_base" = type { %"struct.std::_Vector_base<int, std::allocator<int>>::_Vector_impl" }
%"struct.std::_Vector_base<int, std::allocator<int>>::_Vector_impl" = type { %"struct.std::_Vector_base<int, std::allocator<int>>::_Vector_impl_data" }
%"struct.std::_Vector_base<int, std::allocator<int>>::_Vector_impl_data" = type { ptr, ptr, ptr }
%"class.std::vector.3" = type { %"struct.std::_Vector_base.4" }
%"struct.std::_Vector_base.4" = type { %"struct.std::_Vector_base<unsigned long, std::allocator<unsigned long>>::_Vector_impl" }
%"struct.std::_Vector_base<unsigned long, std::allocator<unsigned long>>::_Vector_impl" = type { %"struct.std::_Vector_base<unsigned long, std::allocator<unsigned long>>::_Vector_impl_data" }
%"struct.std::_Vector_base<unsigned long, std::allocator<unsigned long>>::_Vector_impl_data" = type { ptr, ptr, ptr }
%"class.std::vector.8" = type { %"struct.std::_Vector_base.9" }
%"struct.std::_Vector_base.9" = type { %"struct.std::_Vector_base<double, std::allocator<double>>::_Vector_impl" }
%"struct.std::_Vector_base<double, std::allocator<double>>::_Vector_impl" = type { %"struct.std::_Vector_base<double, std::allocator<double>>::_Vector_impl_data" }
%"struct.std::_Vector_base<double, std::allocator<double>>::_Vector_impl_data" = type { ptr, ptr, ptr }
%"class.std::vector.13" = type { %"struct.std::_Vector_base.14" }
%"struct.std::_Vector_base.14" = type { %"struct.std::_Vector_base<colvarmodule::rvector, std::allocator<colvarmodule::rvector>>::_Vector_impl" }
%"struct.std::_Vector_base<colvarmodule::rvector, std::allocator<colvarmodule::rvector>>::_Vector_impl" = type { %"struct.std::_Vector_base<colvarmodule::rvector, std::allocator<colvarmodule::rvector>>::_Vector_impl_data" }
%"struct.std::_Vector_base<colvarmodule::rvector, std::allocator<colvarmodule::rvector>>::_Vector_impl_data" = type { ptr, ptr, ptr }
%"class.colvarmodule::rvector" = type { double, double, double }
%"class.__gnu_cxx::__normal_iterator.29" = type { ptr }

; Function Attrs: inlinehint mustprogress nounwind uwtable
define linkonce_odr noundef double @_ZNK12colvarmodule7rvector5norm2Ev(ptr noundef nonnull align 8 dereferenceable(24) %0) #9 comdat align 2 {
  %2 = alloca ptr, align 8
  store ptr %0, ptr %2, align 8, !tbaa !174
  %3 = load ptr, ptr %2, align 8
  %4 = getelementptr inbounds nuw %"class.colvarmodule::rvector", ptr %3, i32 0, i32 0
  %5 = load double, ptr %4, align 8, !tbaa !205
  %6 = getelementptr inbounds nuw %"class.colvarmodule::rvector", ptr %3, i32 0, i32 0
  %7 = load double, ptr %6, align 8, !tbaa !205
  %8 = getelementptr inbounds nuw %"class.colvarmodule::rvector", ptr %3, i32 0, i32 1
  %9 = load double, ptr %8, align 8, !tbaa !206
  %10 = getelementptr inbounds nuw %"class.colvarmodule::rvector", ptr %3, i32 0, i32 1
  %11 = load double, ptr %10, align 8, !tbaa !206
  %12 = fmul double %9, %11
  %13 = call double @llvm.fmuladd.f64(double %5, double %7, double %12)
  %14 = getelementptr inbounds nuw %"class.colvarmodule::rvector", ptr %3, i32 0, i32 2
  %15 = load double, ptr %14, align 8, !tbaa !207
  %16 = getelementptr inbounds nuw %"class.colvarmodule::rvector", ptr %3, i32 0, i32 2
  %17 = load double, ptr %16, align 8, !tbaa !207
  %18 = call double @llvm.fmuladd.f64(double %15, double %17, double %13)
  ret double %18
}

; Function Attrs: mustprogress nounwind uwtable
define linkonce_odr noundef nonnull align 8 dereferenceable(8) ptr @_ZNK9__gnu_cxx17__normal_iteratorIPKN12colvarmodule7rvectorESt6vectorIS2_SaIS2_EEE4baseEv(ptr noundef nonnull align 8 dereferenceable(8) %0) #0 comdat align 2 {
  %2 = alloca ptr, align 8
  store ptr %0, ptr %2, align 8, !tbaa !226
  %3 = load ptr, ptr %2, align 8
  %4 = getelementptr inbounds nuw %"class.__gnu_cxx::__normal_iterator.29", ptr %3, i32 0, i32 0
  ret ptr %4
}

; Function Attrs: mustprogress nounwind uwtable
define linkonce_odr void @_ZN9__gnu_cxx17__normal_iteratorIPKN12colvarmodule7rvectorESt6vectorIS2_SaIS2_EEEC2ERKS4_(ptr noundef nonnull align 8 dereferenceable(8) %0, ptr noundef nonnull align 8 dereferenceable(8) %1) unnamed_addr #0 comdat align 2 {
  %3 = alloca ptr, align 8
  %4 = alloca ptr, align 8
  store ptr %0, ptr %3, align 8, !tbaa !226
  store ptr %1, ptr %4, align 8, !tbaa !200
  %5 = load ptr, ptr %3, align 8
  %6 = getelementptr inbounds nuw %"class.__gnu_cxx::__normal_iterator.29", ptr %5, i32 0, i32 0
  %7 = load ptr, ptr %4, align 8, !tbaa !200
  %8 = load ptr, ptr %7, align 8, !tbaa !174
  store ptr %8, ptr %6, align 8, !tbaa !228
  ret void
}

; Function Attrs: inlinehint mustprogress nounwind uwtable
define linkonce_odr noundef double @_ZN12colvarmodule4sqrtERKd(ptr noundef nonnull align 8 dereferenceable(8) %0) #9 comdat align 2 {
  %2 = alloca ptr, align 8
  store ptr %0, ptr %2, align 8, !tbaa !175
  %3 = load ptr, ptr %2, align 8, !tbaa !175
  %4 = load double, ptr %3, align 8, !tbaa !107
  %5 = call double @sqrt(double noundef %4) #18, !tbaa !9
  ret double %5
}

; Function Attrs: mustprogress nounwind uwtable
define linkonce_odr noundef i64 @_ZNKSt6vectorIN12colvarmodule7rvectorESaIS1_EE4sizeEv(ptr noundef nonnull align 8 dereferenceable(24) %0) #0 comdat align 2 {
  %2 = alloca ptr, align 8
  store ptr %0, ptr %2, align 8, !tbaa !108
  %3 = load ptr, ptr %2, align 8
  %4 = getelementptr inbounds nuw %"struct.std::_Vector_base.14", ptr %3, i32 0, i32 0
  %5 = getelementptr inbounds nuw %"struct.std::_Vector_base<colvarmodule::rvector, std::allocator<colvarmodule::rvector>>::_Vector_impl_data", ptr %4, i32 0, i32 1
  %6 = load ptr, ptr %5, align 8, !tbaa !170
  %7 = getelementptr inbounds nuw %"struct.std::_Vector_base.14", ptr %3, i32 0, i32 0
  %8 = getelementptr inbounds nuw %"struct.std::_Vector_base<colvarmodule::rvector, std::allocator<colvarmodule::rvector>>::_Vector_impl_data", ptr %7, i32 0, i32 0
  %9 = load ptr, ptr %8, align 8, !tbaa !169
  %10 = ptrtoint ptr %6 to i64
  %11 = ptrtoint ptr %9 to i64
  %12 = sub i64 %10, %11
  %13 = sdiv exact i64 %12, 24
  ret i64 %13
}

; Function Attrs: mustprogress nounwind uwtable
define linkonce_odr ptr @_ZN9__gnu_cxx17__normal_iteratorIPKN12colvarmodule7rvectorESt6vectorIS2_SaIS2_EEEppEi(ptr noundef nonnull align 8 dereferenceable(8) %0, i32 noundef %1) #0 comdat align 2 {
  %3 = alloca %"class.__gnu_cxx::__normal_iterator.29", align 8
  %4 = alloca ptr, align 8
  %5 = alloca i32, align 4
  %6 = alloca ptr, align 8
  store ptr %0, ptr %4, align 8, !tbaa !226
  store i32 %1, ptr %5, align 4, !tbaa !9
  %7 = load ptr, ptr %4, align 8
  call void @llvm.lifetime.start.p0(i64 8, ptr %6) #18
  %8 = getelementptr inbounds nuw %"class.__gnu_cxx::__normal_iterator.29", ptr %7, i32 0, i32 0
  %9 = load ptr, ptr %8, align 8, !tbaa !228
  %10 = getelementptr inbounds nuw %"class.colvarmodule::rvector", ptr %9, i32 1
  store ptr %10, ptr %8, align 8, !tbaa !228
  store ptr %9, ptr %6, align 8, !tbaa !174
  call void @_ZN9__gnu_cxx17__normal_iteratorIPKN12colvarmodule7rvectorESt6vectorIS2_SaIS2_EEEC2ERKS4_(ptr noundef nonnull align 8 dereferenceable(8) %3, ptr noundef nonnull align 8 dereferenceable(8) %6) #18
  call void @llvm.lifetime.end.p0(i64 8, ptr %6) #18
  %11 = getelementptr inbounds nuw %"class.__gnu_cxx::__normal_iterator.29", ptr %3, i32 0, i32 0
  %12 = load ptr, ptr %11, align 8
  ret ptr %12
}

; Function Attrs: mustprogress uwtable
define linkonce_odr noundef double @_Z15get_force_norm2IN12colvarmodule7rvectorEEdRKT_(ptr noundef nonnull align 8 dereferenceable(24) %0) #1 comdat {
  %2 = alloca ptr, align 8
  store ptr %0, ptr %2, align 8, !tbaa !174
  %3 = load ptr, ptr %2, align 8, !tbaa !174
  %4 = call noundef double @_ZNK12colvarmodule7rvector5norm2Ev(ptr noundef nonnull align 8 dereferenceable(24) %3)
  ret double %4
}

; Function Attrs: mustprogress nounwind uwtable
define linkonce_odr noundef nonnull align 8 dereferenceable(24) ptr @_ZNK9__gnu_cxx17__normal_iteratorIPKN12colvarmodule7rvectorESt6vectorIS2_SaIS2_EEEdeEv(ptr noundef nonnull align 8 dereferenceable(8) %0) #0 comdat align 2 {
  %2 = alloca ptr, align 8
  store ptr %0, ptr %2, align 8, !tbaa !226
  %3 = load ptr, ptr %2, align 8
  %4 = getelementptr inbounds nuw %"class.__gnu_cxx::__normal_iterator.29", ptr %3, i32 0, i32 0
  %5 = load ptr, ptr %4, align 8, !tbaa !228
  ret ptr %5
}

; Function Attrs: inlinehint mustprogress nounwind uwtable
define linkonce_odr noundef zeroext i1 @_ZN9__gnu_cxxneIPKN12colvarmodule7rvectorESt6vectorIS2_SaIS2_EEEEbRKNS_17__normal_iteratorIT_T0_EESD_(ptr noundef nonnull align 8 dereferenceable(8) %0, ptr noundef nonnull align 8 dereferenceable(8) %1) #9 comdat {
  %3 = alloca ptr, align 8
  %4 = alloca ptr, align 8
  store ptr %0, ptr %3, align 8, !tbaa !226
  store ptr %1, ptr %4, align 8, !tbaa !226
  %5 = load ptr, ptr %3, align 8, !tbaa !226
  %6 = call noundef nonnull align 8 dereferenceable(8) ptr @_ZNK9__gnu_cxx17__normal_iteratorIPKN12colvarmodule7rvectorESt6vectorIS2_SaIS2_EEE4baseEv(ptr noundef nonnull align 8 dereferenceable(8) %5) #18
  %7 = load ptr, ptr %6, align 8, !tbaa !174
  %8 = load ptr, ptr %4, align 8, !tbaa !226
  %9 = call noundef nonnull align 8 dereferenceable(8) ptr @_ZNK9__gnu_cxx17__normal_iteratorIPKN12colvarmodule7rvectorESt6vectorIS2_SaIS2_EEE4baseEv(ptr noundef nonnull align 8 dereferenceable(8) %8) #18
  %10 = load ptr, ptr %9, align 8, !tbaa !174
  %11 = icmp ne ptr %7, %10
  ret i1 %11
}

; Function Attrs: mustprogress nounwind uwtable
define linkonce_odr ptr @_ZNKSt6vectorIN12colvarmodule7rvectorESaIS1_EE3endEv(ptr noundef nonnull align 8 dereferenceable(24) %0) #0 comdat align 2 {
  %2 = alloca %"class.__gnu_cxx::__normal_iterator.29", align 8
  %3 = alloca ptr, align 8
  store ptr %0, ptr %3, align 8, !tbaa !108
  %4 = load ptr, ptr %3, align 8
  %5 = getelementptr inbounds nuw %"struct.std::_Vector_base.14", ptr %4, i32 0, i32 0
  %6 = getelementptr inbounds nuw %"struct.std::_Vector_base<colvarmodule::rvector, std::allocator<colvarmodule::rvector>>::_Vector_impl_data", ptr %5, i32 0, i32 1
  call void @_ZN9__gnu_cxx17__normal_iteratorIPKN12colvarmodule7rvectorESt6vectorIS2_SaIS2_EEEC2ERKS4_(ptr noundef nonnull align 8 dereferenceable(8) %2, ptr noundef nonnull align 8 dereferenceable(8) %6) #18
  %7 = getelementptr inbounds nuw %"class.__gnu_cxx::__normal_iterator.29", ptr %2, i32 0, i32 0
  %8 = load ptr, ptr %7, align 8
  ret ptr %8
}

; Function Attrs: mustprogress nounwind uwtable
define linkonce_odr ptr @_ZNKSt6vectorIN12colvarmodule7rvectorESaIS1_EE5beginEv(ptr noundef nonnull align 8 dereferenceable(24) %0) #0 comdat align 2 {
  %2 = alloca %"class.__gnu_cxx::__normal_iterator.29", align 8
  %3 = alloca ptr, align 8
  store ptr %0, ptr %3, align 8, !tbaa !108
  %4 = load ptr, ptr %3, align 8
  %5 = getelementptr inbounds nuw %"struct.std::_Vector_base.14", ptr %4, i32 0, i32 0
  %6 = getelementptr inbounds nuw %"struct.std::_Vector_base<colvarmodule::rvector, std::allocator<colvarmodule::rvector>>::_Vector_impl_data", ptr %5, i32 0, i32 0
  call void @_ZN9__gnu_cxx17__normal_iteratorIPKN12colvarmodule7rvectorESt6vectorIS2_SaIS2_EEEC2ERKS4_(ptr noundef nonnull align 8 dereferenceable(8) %2, ptr noundef nonnull align 8 dereferenceable(8) %6) #18
  %7 = getelementptr inbounds nuw %"class.__gnu_cxx::__normal_iterator.29", ptr %2, i32 0, i32 0
  %8 = load ptr, ptr %7, align 8
  ret ptr %8
}

; Function Attrs: mustprogress uwtable
define linkonce_odr noundef double @_Z19compute_norm2_statsIN12colvarmodule7rvectorELi0ELb0EEdRKSt6vectorIT_SaIS3_EEPi(ptr noundef nonnull align 8 dereferenceable(24) %0, ptr noundef %1) #1 comdat {
  %3 = alloca ptr, align 8
  %4 = alloca ptr, align 8
  %5 = alloca double, align 8
  %6 = alloca %"class.__gnu_cxx::__normal_iterator.29", align 8
  %7 = alloca i64, align 8
  %8 = alloca %"class.__gnu_cxx::__normal_iterator.29", align 8
  %9 = alloca double, align 8
  %10 = alloca %"class.__gnu_cxx::__normal_iterator.29", align 8
  %11 = alloca i64, align 8
  store ptr %0, ptr %3, align 8, !tbaa !108
  store ptr %1, ptr %4, align 8, !tbaa !11
  call void @llvm.lifetime.start.p0(i64 8, ptr %5) #18
  store double 0.000000e+00, ptr %5, align 8, !tbaa !107
  call void @llvm.lifetime.start.p0(i64 8, ptr %6) #18
  %12 = load ptr, ptr %3, align 8, !tbaa !108
  %13 = call ptr @_ZNKSt6vectorIN12colvarmodule7rvectorESaIS1_EE5beginEv(ptr noundef nonnull align 8 dereferenceable(24) %12) #18
  %14 = getelementptr inbounds nuw %"class.__gnu_cxx::__normal_iterator.29", ptr %6, i32 0, i32 0
  store ptr %13, ptr %14, align 8
  call void @llvm.lifetime.start.p0(i64 8, ptr %7) #18
  store i64 0, ptr %7, align 8, !tbaa !15
  br label %15

15:                                               ; preds = %26, %2
  call void @llvm.lifetime.start.p0(i64 8, ptr %8) #18
  %16 = load ptr, ptr %3, align 8, !tbaa !108
  %17 = call ptr @_ZNKSt6vectorIN12colvarmodule7rvectorESaIS1_EE3endEv(ptr noundef nonnull align 8 dereferenceable(24) %16) #18
  %18 = getelementptr inbounds nuw %"class.__gnu_cxx::__normal_iterator.29", ptr %8, i32 0, i32 0
  store ptr %17, ptr %18, align 8
  %19 = call noundef zeroext i1 @_ZN9__gnu_cxxneIPKN12colvarmodule7rvectorESt6vectorIS2_SaIS2_EEEEbRKNS_17__normal_iteratorIT_T0_EESD_(ptr noundef nonnull align 8 dereferenceable(8) %6, ptr noundef nonnull align 8 dereferenceable(8) %8) #18
  call void @llvm.lifetime.end.p0(i64 8, ptr %8) #18
  br i1 %19, label %20, label %31

20:                                               ; preds = %15
  call void @llvm.lifetime.start.p0(i64 8, ptr %9) #18
  %21 = call noundef nonnull align 8 dereferenceable(24) ptr @_ZNK9__gnu_cxx17__normal_iteratorIPKN12colvarmodule7rvectorESt6vectorIS2_SaIS2_EEEdeEv(ptr noundef nonnull align 8 dereferenceable(8) %6) #18
  %22 = call noundef double @_Z15get_force_norm2IN12colvarmodule7rvectorEEdRKT_(ptr noundef nonnull align 8 dereferenceable(24) %21)
  store double %22, ptr %9, align 8, !tbaa !107
  %23 = load double, ptr %9, align 8, !tbaa !107
  %24 = load double, ptr %5, align 8, !tbaa !107
  %25 = fadd double %24, %23
  store double %25, ptr %5, align 8, !tbaa !107
  call void @llvm.lifetime.end.p0(i64 8, ptr %9) #18
  br label %26

26:                                               ; preds = %20
  %27 = call ptr @_ZN9__gnu_cxx17__normal_iteratorIPKN12colvarmodule7rvectorESt6vectorIS2_SaIS2_EEEppEi(ptr noundef nonnull align 8 dereferenceable(8) %6, i32 noundef 0) #18
  %28 = getelementptr inbounds nuw %"class.__gnu_cxx::__normal_iterator.29", ptr %10, i32 0, i32 0
  store ptr %27, ptr %28, align 8
  %29 = load i64, ptr %7, align 8, !tbaa !15
  %30 = add i64 %29, 1
  store i64 %30, ptr %7, align 8, !tbaa !15
  br label %15, !llvm.loop !225

31:                                               ; preds = %15
  call void @llvm.lifetime.start.p0(i64 8, ptr %11) #18
  %32 = load ptr, ptr %3, align 8, !tbaa !108
  %33 = call noundef i64 @_ZNKSt6vectorIN12colvarmodule7rvectorESaIS1_EE4sizeEv(ptr noundef nonnull align 8 dereferenceable(24) %32) #18
  store i64 %33, ptr %11, align 8, !tbaa !15
  %34 = load i64, ptr %11, align 8, !tbaa !15
  %35 = icmp ugt i64 %34, 0
  br i1 %35, label %36, label %41

36:                                               ; preds = %31
  %37 = load i64, ptr %11, align 8, !tbaa !15
  %38 = uitofp i64 %37 to double
  %39 = load double, ptr %5, align 8, !tbaa !107
  %40 = fdiv double %39, %38
  store double %40, ptr %5, align 8, !tbaa !107
  br label %41

41:                                               ; preds = %36, %31
  %42 = call noundef double @_ZN12colvarmodule4sqrtERKd(ptr noundef nonnull align 8 dereferenceable(8) %5)
  store double %42, ptr %5, align 8, !tbaa !107
  %43 = load double, ptr %5, align 8, !tbaa !107
  call void @llvm.lifetime.end.p0(i64 8, ptr %11) #18
  call void @llvm.lifetime.end.p0(i64 8, ptr %7) #18
  call void @llvm.lifetime.end.p0(i64 8, ptr %6) #18
  call void @llvm.lifetime.end.p0(i64 8, ptr %5) #18
  ret double %43
}

; Function Attrs: mustprogress uwtable
define void @_ZN17colvarproxy_atoms31compute_rms_atoms_applied_forceEv(ptr noundef nonnull align 8 dereferenceable(199) %0) #1 align 2 {
  %2 = alloca ptr, align 8
  store ptr %0, ptr %2, align 8, !tbaa !4
  %3 = load ptr, ptr %2, align 8
  %4 = getelementptr inbounds nuw %class.colvarproxy_atoms, ptr %3, i32 0, i32 7
  %5 = call noundef double @_Z19compute_norm2_statsIN12colvarmodule7rvectorELi0ELb0EEdRKSt6vectorIT_SaIS3_EEPi(ptr noundef nonnull align 8 dereferenceable(24) %4, ptr noundef null)
  %6 = getelementptr inbounds nuw %class.colvarproxy_atoms, ptr %3, i32 0, i32 8
  store double %5, ptr %6, align 8, !tbaa !113
  ret void
}